target datalayout = "e-m:e-p270:32:32-p271:32:32-p272:64:64-i64:64-i128:128-f80:128-n8:16:32:64-S128"
target triple = "x86_64-pc-linux-gnu"

%struct.asdl_expr_seq = type { i64, ptr, [1 x ptr] }

@PyExc_ValueError = external global ptr, align 8
@.str.73 = private unnamed_addr constant [35 x i8] c"None disallowed in expression list\00", align 1

; Function Attrs: nounwind uwtable
define internal i32 @validate_exprs(ptr noundef %0, ptr noundef %1, i32 noundef %2, i32 noundef %3) #0 {
  %5 = alloca i32, align 4
  %6 = alloca ptr, align 8
  %7 = alloca ptr, align 8
  %8 = alloca i32, align 4
  %9 = alloca i32, align 4
  %10 = alloca i64, align 8
  %11 = alloca i32, align 4
  %12 = alloca ptr, align 8
  store ptr %0, ptr %6, align 8, !tbaa !31
  store ptr %1, ptr %7, align 8, !tbaa !33
  store i32 %2, ptr %8, align 4, !tbaa !9
  store i32 %3, ptr %9, align 4, !tbaa !9
  call void @llvm.lifetime.start.p0(i64 8, ptr %10) #6
  store i64 0, ptr %10, align 8, !tbaa !34
  br label %13

13:                                               ; preds = %52, %4
  %14 = load i64, ptr %10, align 8, !tbaa !34
  %15 = load ptr, ptr %7, align 8, !tbaa !33
  %16 = icmp eq ptr %15, null
  br i1 %16, label %17, label %18

17:                                               ; preds = %13
  br label %22

18:                                               ; preds = %13
  %19 = load ptr, ptr %7, align 8, !tbaa !33
  %20 = getelementptr inbounds nuw %struct.asdl_expr_seq, ptr %19, i32 0, i32 0
  %21 = load i64, ptr %20, align 8, !tbaa !35
  br label %22

22:                                               ; preds = %18, %17
  %23 = phi i64 [ 0, %17 ], [ %21, %18 ]
  %24 = icmp slt i64 %14, %23
  br i1 %24, label %26, label %25

25:                                               ; preds = %22
  store i32 2, ptr %11, align 4
  br label %55

26:                                               ; preds = %22
  call void @llvm.lifetime.start.p0(i64 8, ptr %12) #6
  %27 = load ptr, ptr %7, align 8, !tbaa !33
  %28 = getelementptr inbounds nuw %struct.asdl_expr_seq, ptr %27, i32 0, i32 2
  %29 = load i64, ptr %10, align 8, !tbaa !34
  %30 = getelementptr [1 x ptr], ptr %28, i64 0, i64 %29
  %31 = load ptr, ptr %30, align 8, !tbaa !41
  store ptr %31, ptr %12, align 8, !tbaa !41
  %32 = load ptr, ptr %12, align 8, !tbaa !41
  %33 = icmp ne ptr %32, null
  br i1 %33, label %34, label %42

34:                                               ; preds = %26
  %35 = load ptr, ptr %6, align 8, !tbaa !31
  %36 = load ptr, ptr %12, align 8, !tbaa !41
  %37 = load i32, ptr %8, align 4, !tbaa !9
  %38 = call i32 @validate_expr(ptr noundef %35, ptr noundef %36, i32 noundef %37)
  %39 = icmp ne i32 %38, 0
  br i1 %39, label %41, label %40

40:                                               ; preds = %34
  store i32 0, ptr %5, align 4
  store i32 1, ptr %11, align 4
  br label %49

41:                                               ; preds = %34
  br label %48

42:                                               ; preds = %26
  %43 = load i32, ptr %9, align 4, !tbaa !9
  %44 = icmp ne i32 %43, 0
  br i1 %44, label %47, label %45

45:                                               ; preds = %42
  %46 = load ptr, ptr @PyExc_ValueError, align 8, !tbaa !30
  call void @PyErr_SetString(ptr noundef %46, ptr noundef @.str.73)
  store i32 0, ptr %5, align 4
  store i32 1, ptr %11, align 4
  br label %49

47:                                               ; preds = %42
  br label %48

48:                                               ; preds = %47, %41
  store i32 0, ptr %11, align 4
  br label %49

49:                                               ; preds = %48, %45, %40
  call void @llvm.lifetime.end.p0(i64 8, ptr %12) #6
  %50 = load i32, ptr %11, align 4
  switch i32 %50, label %55 [
    i32 0, label %51
  ]

51:                                               ; preds = %49
  br label %52

52:                                               ; preds = %51
  %53 = load i64, ptr %10, align 8, !tbaa !34
  %54 = add i64 %53, 1
  store i64 %54, ptr %10, align 8, !tbaa !34
  br label %13, !llvm.loop !49

55:                                               ; preds = %49, %25
  call void @llvm.lifetime.end.p0(i64 8, ptr %10) #6
  %56 = load i32, ptr %11, align 4
  switch i32 %56, label %60 [
    i32 2, label %57
    i32 1, label %58
  ]

57:                                               ; preds = %55
  store i32 1, ptr %5, align 4
  br label %58

58:                                               ; preds = %57, %55
  %59 = load i32, ptr %5, align 4
  ret i32 %59

60:                                               ; preds = %55
  unreachable
}