; Function Attrs: nounwind uwtable
define internal fastcc noundef range(i32 0, 2) i32 @validate_exprs(ptr noundef nonnull captures(none) %0, ptr noundef readonly %1, i32 noundef range(i32 1, 4) %2, i32 noundef range(i32 0, 2) %3) unnamed_addr #0 {
  %5 = icmp eq ptr %1, null
  %6 = getelementptr inbounds nuw i8, ptr %1, i64 16
  %.not18 = icmp eq i32 %3, 0
  br i1 %5, label %.loopexit, label %.split

.split:                                           ; preds = %4
  %7 = load i64, ptr %1, align 8, !tbaa !27
  %.not2026 = icmp slt i64 %7, 1
  br i1 %.not2026, label %.loopexit, label %.lr.ph

.lr.ph:                                           ; preds = %.split
  br i1 %.not18, label %.lr.ph.split.us, label %.lr.ph.split

.lr.ph.split.us:                                  ; preds = %.lr.ph, %.critedge.us33
  %.01527.us = phi i64 [ %12, %.critedge.us33 ], [ 0, %.lr.ph ]
  %8 = getelementptr [1 x ptr], ptr %6, i64 0, i64 %.01527.us
  %9 = load ptr, ptr %8, align 8, !tbaa !29
  %.not.us31 = icmp eq ptr %9, null
  br i1 %.not.us31, label %.split24, label %10

10:                                               ; preds = %.lr.ph.split.us
  %11 = tail call fastcc i32 @validate_expr(ptr noundef %0, ptr noundef nonnull %9, i32 noundef %2)
  %.not19.us32 = icmp eq i32 %11, 0
  br i1 %.not19.us32, label %.loopexit, label %.critedge.us33

.critedge.us33:                                   ; preds = %10
  %12 = add nuw nsw i64 %.01527.us, 1
  %13 = load i64, ptr %1, align 8, !tbaa !27
  %.not20.us34.not = icmp slt i64 %12, %13
  br i1 %.not20.us34.not, label %.lr.ph.split.us, label %.loopexit, !llvm.loop !31

.lr.ph.split:                                     ; preds = %.lr.ph, %.critedge
  %14 = phi i64 [ %20, %.critedge ], [ %7, %.lr.ph ]
  %.01527 = phi i64 [ %21, %.critedge ], [ 0, %.lr.ph ]
  %15 = getelementptr [1 x ptr], ptr %6, i64 0, i64 %.01527
  %16 = load ptr, ptr %15, align 8, !tbaa !29
  %.not = icmp eq ptr %16, null
  br i1 %.not, label %.critedge, label %17

17:                                               ; preds = %.lr.ph.split
  %18 = tail call fastcc i32 @validate_expr(ptr noundef %0, ptr noundef nonnull %16, i32 noundef %2)
  %.not19 = icmp eq i32 %18, 0
  br i1 %.not19, label %.loopexit, label %..critedge_crit_edge

..critedge_crit_edge:                             ; preds = %17
  %.pre = load i64, ptr %1, align 8, !tbaa !27
  br label %.critedge

.split24:                                         ; preds = %.lr.ph.split.us
  %19 = load ptr, ptr @PyExc_ValueError, align 8, !tbaa !33
  tail call void @PyErr_SetString(ptr noundef %19, ptr noundef nonnull @.str.73) #5
  br label %.loopexit

.critedge:                                        ; preds = %..critedge_crit_edge, %.lr.ph.split
  %20 = phi i64 [ %.pre, %..critedge_crit_edge ], [ %14, %.lr.ph.split ]
  %21 = add nuw nsw i64 %.01527, 1
  %.not20.not = icmp slt i64 %21, %20
  br i1 %.not20.not, label %.lr.ph.split, label %.loopexit, !llvm.loop !31

.loopexit:                                        ; preds = %17, %.critedge, %10, %.critedge.us33, %4, %.split, %.split24
  %.not2022 = phi i32 [ 0, %.split24 ], [ 1, %4 ], [ 1, %.split ], [ 1, %.critedge.us33 ], [ 0, %10 ], [ 1, %.critedge ], [ 0, %17 ]
  ret i32 %.not2022
}